
Memory Configuration

Name             Origin             Length             Attributes
SRAM             0x0000000020000000 0x0000000000005000 xrw
STACK            0x0000000020001ffc 0x0000000000000000 xrw
FLASH            0x0000000000000000 0x0000000000010000 xr
*default*        0x0000000000000000 0xffffffffffffffff

Linker script and memory map

LOAD Objects/startup.o
LOAD Objects/Initialize.o
LOAD Objects/main.o
                0x0000000000000000                . = ORIGIN (FLASH)

.vectors        0x0000000000000000      0x134
 *(.isr_vector)
 .isr_vector    0x0000000000000000      0x134 Objects/startup.o
                0x0000000000000000                g_pfnVectors

.text           0x0000000000000134       0x3c
 *(.text)
 .text          0x0000000000000134       0x14 Objects/startup.o
 .text          0x0000000000000148       0x28 Objects/Initialize.o
                0x0000000000000148                SystemInit
 .text          0x0000000000000170        0x0 Objects/main.o
 *(.rodata)
 *(.rodata*)

.glue_7         0x0000000000000170        0x0
 .glue_7        0x0000000000000000        0x0 linker stubs

.glue_7t        0x0000000000000170        0x0
 .glue_7t       0x0000000000000000        0x0 linker stubs

.vfp11_veneer   0x0000000000000170        0x0
 .vfp11_veneer  0x0000000000000000        0x0 linker stubs

.v4_bx          0x0000000000000170        0x0
 .v4_bx         0x0000000000000000        0x0 linker stubs

.text.Reset_Handler
                0x0000000000000170       0x4c
 .text.Reset_Handler
                0x0000000000000170       0x4c Objects/startup.o
                0x0000000000000170                Reset_Handler

.text.Default_Handler
                0x00000000000001bc        0x4
 .text.Default_Handler
                0x00000000000001bc        0x4 Objects/startup.o
                0x00000000000001bc                TIM1_BRK_TIM15_IRQHandler
                0x00000000000001bc                DebugMon_Handler
                0x00000000000001bc                TIM1_CC_IRQHandler
                0x00000000000001bc                HardFault_Handler
                0x00000000000001bc                SysTick_Handler
                0x00000000000001bc                PVD_IRQHandler
                0x00000000000001bc                PendSV_Handler
                0x00000000000001bc                NMI_Handler
                0x00000000000001bc                EXTI3_IRQHandler
                0x00000000000001bc                EXTI0_IRQHandler
                0x00000000000001bc                I2C2_EV_IRQHandler
                0x00000000000001bc                TIM1_UP_TIM16_IRQHandler
                0x00000000000001bc                UsageFault_Handler
                0x00000000000001bc                SPI1_IRQHandler
                0x00000000000001bc                TAMPER_IRQHandler
                0x00000000000001bc                TIM6_DAC_IRQHandler
                0x00000000000001bc                DMA2_Channel2_IRQHandler
                0x00000000000001bc                DMA1_Channel4_IRQHandler
                0x00000000000001bc                ADC1_IRQHandler
                0x00000000000001bc                USART3_IRQHandler
                0x00000000000001bc                RTC_IRQHandler
                0x00000000000001bc                DMA1_Channel7_IRQHandler
                0x00000000000001bc                UART5_IRQHandler
                0x00000000000001bc                TIM4_IRQHandler
                0x00000000000001bc                DMA2_Channel1_IRQHandler
                0x00000000000001bc                I2C1_EV_IRQHandler
                0x00000000000001bc                DMA1_Channel6_IRQHandler
                0x00000000000001bc                UART4_IRQHandler
                0x00000000000001bc                DMA2_Channel4_IRQHandler
                0x00000000000001bc                TIM3_IRQHandler
                0x00000000000001bc                RCC_IRQHandler
                0x00000000000001bc                DMA1_Channel1_IRQHandler
                0x00000000000001bc                Default_Handler
                0x00000000000001bc                CEC_IRQHandler
                0x00000000000001bc                EXTI15_10_IRQHandler
                0x00000000000001bc                TIM14_IRQHandler
                0x00000000000001bc                TIM13_IRQHandler
                0x00000000000001bc                TIM12_IRQHandler
                0x00000000000001bc                TIM7_IRQHandler
                0x00000000000001bc                TIM5_IRQHandler
                0x00000000000001bc                EXTI9_5_IRQHandler
                0x00000000000001bc                SPI2_IRQHandler
                0x00000000000001bc                MemManage_Handler
                0x00000000000001bc                SVC_Handler
                0x00000000000001bc                DMA2_Channel5_IRQHandler
                0x00000000000001bc                DMA1_Channel5_IRQHandler
                0x00000000000001bc                EXTI4_IRQHandler
                0x00000000000001bc                TIM1_TRG_COM_TIM17_IRQHandler
                0x00000000000001bc                DMA1_Channel3_IRQHandler
                0x00000000000001bc                FSMC_IRQHandler
                0x00000000000001bc                WWDG_IRQHandler
                0x00000000000001bc                TIM2_IRQHandler
                0x00000000000001bc                EXTI1_IRQHandler
                0x00000000000001bc                RTCAlarm_IRQHandler
                0x00000000000001bc                USART2_IRQHandler
                0x00000000000001bc                I2C2_ER_IRQHandler
                0x00000000000001bc                DMA1_Channel2_IRQHandler
                0x00000000000001bc                FLASH_IRQHandler
                0x00000000000001bc                BusFault_Handler
                0x00000000000001bc                USART1_IRQHandler
                0x00000000000001bc                SPI3_IRQHandler
                0x00000000000001bc                I2C1_ER_IRQHandler
                0x00000000000001bc                DMA2_Channel3_IRQHandler
                0x00000000000001bc                EXTI2_IRQHandler

.iplt           0x00000000000001c0        0x0
 .iplt          0x0000000000000000        0x0 Objects/startup.o

.text.startup   0x00000000000001c0       0x4c
 .text.startup  0x00000000000001c0       0x4c Objects/main.o
                0x00000000000001c0                main

.rel.dyn        0x000000000000020c        0x0
 .rel.iplt      0x0000000000000000        0x0 Objects/startup.o

.data           0x0000000020000000        0x0 load address 0x000000000000020c
                0x0000000020000000                _start_data = .
 *(.data)
 .data          0x0000000020000000        0x0 Objects/startup.o
 .data          0x0000000020000000        0x0 Objects/Initialize.o
 .data          0x0000000020000000        0x0 Objects/main.o
                0x0000000020000000                _end_data = .
                0x000000000000020c                _start_data_flash = LOADADDR (.data)

.igot.plt       0x0000000020000000        0x0 load address 0x000000000000020c
 .igot.plt      0x0000000000000000        0x0 Objects/startup.o
                0x0000000020000000                . = ALIGN (0x4)

.bss            0x0000000020000000        0x0 load address 0x000000000000020c
                0x0000000020000000                _start_bss = .
 *(.bss)
 .bss           0x0000000020000000        0x0 Objects/startup.o
 .bss           0x0000000020000000        0x0 Objects/Initialize.o
 .bss           0x0000000020000000        0x0 Objects/main.o
                0x0000000020000000                _end_bss = .
                0x0000000020000000                . = ALIGN (0x4)
                0x0000000020000000                _start_stack = .
                0x0000000020001ffc                _end_stack = ORIGIN (STACK)
                0x0000000020000000                _end = .
                0x0000000020000000                PROVIDE (end, .)
OUTPUT(STM32F100.elf elf32-littlearm)

.ARM.attributes
                0x0000000000000000       0x2f
 .ARM.attributes
                0x0000000000000000       0x21 Objects/startup.o
 .ARM.attributes
                0x0000000000000021       0x33 Objects/Initialize.o
 .ARM.attributes
                0x0000000000000054       0x33 Objects/main.o

.comment        0x0000000000000000       0x70
 .comment       0x0000000000000000       0x70 Objects/Initialize.o
                                         0x71 (size before relaxing)
 .comment       0x0000000000000000       0x71 Objects/main.o

.debug_info     0x0000000000000000       0xcb
 .debug_info    0x0000000000000000       0x61 Objects/Initialize.o
 .debug_info    0x0000000000000061       0x6a Objects/main.o

.debug_abbrev   0x0000000000000000       0xc5
 .debug_abbrev  0x0000000000000000       0x5c Objects/Initialize.o
 .debug_abbrev  0x000000000000005c       0x69 Objects/main.o

.debug_aranges  0x0000000000000000       0x40
 .debug_aranges
                0x0000000000000000       0x20 Objects/Initialize.o
 .debug_aranges
                0x0000000000000020       0x20 Objects/main.o

.debug_line     0x0000000000000000       0xd7
 .debug_line    0x0000000000000000       0x67 Objects/Initialize.o
 .debug_line    0x0000000000000067       0x70 Objects/main.o

.debug_str      0x0000000000000000       0xfd
 .debug_str     0x0000000000000000       0xe9 Objects/Initialize.o
 .debug_str     0x00000000000000e9       0x14 Objects/main.o
                                         0xd3 (size before relaxing)

.debug_frame    0x0000000000000000       0x48
 .debug_frame   0x0000000000000000       0x24 Objects/Initialize.o
 .debug_frame   0x0000000000000024       0x24 Objects/main.o

.debug_ranges   0x0000000000000000       0x10
 .debug_ranges  0x0000000000000000       0x10 Objects/main.o
